; Function Attrs: nounwind uwtable
define internal void @__cxx_global_array_dtor(ptr readnone captures(none) %0) #6 section ".text.startup" personality ptr @__gxx_personality_v0 {
  br label %2

2:                                                ; preds = %_ZN19OpenColorIO_v2_5dev7ElementD2Ev.exit, %1
  %3 = phi ptr [ getelementptr inbounds nuw (i8, ptr @_ZN19OpenColorIO_v2_5devL4eltsE, i64 240), %1 ], [ %4, %_ZN19OpenColorIO_v2_5dev7ElementD2Ev.exit ]
  %4 = getelementptr inbounds i8, ptr %3, i64 -40
  %5 = load ptr, ptr %4, align 8, !tbaa !9
  %6 = getelementptr inbounds i8, ptr %3, i64 -24
  %7 = icmp eq ptr %5, %6
  br i1 %7, label %_ZNKSt7__cxx1112basic_stringIcSt11char_traitsIcESaIcEE11_M_is_localEv.exit.thread.i.i.i, label %_ZNKSt7__cxx1112basic_stringIcSt11char_traitsIcESaIcEE11_M_is_localEv.exit.i.i.i

_ZNKSt7__cxx1112basic_stringIcSt11char_traitsIcESaIcEE11_M_is_localEv.exit.thread.i.i.i: ; preds = %2
  %8 = getelementptr inbounds i8, ptr %3, i64 -32
  %9 = load i64, ptr %8, align 8, !tbaa !14
  %10 = icmp ult i64 %9, 16
  tail call void @llvm.assume(i1 %10)
  br label %_ZN19OpenColorIO_v2_5dev7ElementD2Ev.exit

_ZNKSt7__cxx1112basic_stringIcSt11char_traitsIcESaIcEE11_M_is_localEv.exit.i.i.i: ; preds = %2
  %11 = load i64, ptr %6, align 8, !tbaa !15
  %12 = add i64 %11, 1
  tail call void @_ZdlPvm(ptr noundef %5, i64 noundef %12) #26
  br label %_ZN19OpenColorIO_v2_5dev7ElementD2Ev.exit

_ZN19OpenColorIO_v2_5dev7ElementD2Ev.exit:        ; preds = %_ZNKSt7__cxx1112basic_stringIcSt11char_traitsIcESaIcEE11_M_is_localEv.exit.thread.i.i.i, %_ZNKSt7__cxx1112basic_stringIcSt11char_traitsIcESaIcEE11_M_is_localEv.exit.i.i.i
  %13 = icmp eq ptr %4, @_ZN19OpenColorIO_v2_5devL4eltsE
  br i1 %13, label %14, label %2

14:                                               ; preds = %_ZN19OpenColorIO_v2_5dev7ElementD2Ev.exit
  ret void
}